target datalayout = "e-m:e-p270:32:32-p271:32:32-p272:64:64-i64:64-i128:128-f80:128-n8:16:32:64-S128"
target triple = "x86_64-pc-linux-gnu"

%struct.XML_Memory_Handling_Suite = type { ptr, ptr, ptr }
%struct.XML_ParserStruct = type { ptr, ptr, ptr, %struct.XML_Memory_Handling_Suite, ptr, ptr, ptr, i64, ptr, i64, i8, i32, ptr, ptr, ptr, ptr, ptr, ptr, ptr, ptr, ptr, ptr, ptr, ptr, ptr, ptr, ptr, ptr, ptr, ptr, ptr, ptr, ptr, ptr, ptr, ptr, ptr, ptr, %struct.INIT_ENCODING, ptr, ptr, i8, i8, ptr, ptr, ptr, ptr, %struct.prolog_state, ptr, i32, ptr, ptr, ptr, ptr, ptr, i8, i32, ptr, ptr, ptr, ptr, ptr, ptr, ptr, ptr, ptr, i8, i8, ptr, ptr, ptr, ptr, ptr, ptr, i32, i32, i32, ptr, ptr, i64, i8, %struct.position, %struct.STRING_POOL, %struct.STRING_POOL, ptr, i32, i8, ptr, %struct.XML_ParsingStatus, i64 }
%struct.INIT_ENCODING = type { %struct.encoding, ptr }
%struct.encoding = type { [3 x ptr], [2 x ptr], ptr, ptr, ptr, ptr, ptr, ptr, ptr, ptr, ptr, ptr, i32, i8, i8 }
%struct.prolog_state = type { ptr, i32, i32 }
%struct.position = type { i64, i64 }
%struct.STRING_POOL = type { ptr, ptr, ptr, ptr, ptr, ptr }
%struct.XML_ParsingStatus = type { i32, i8 }

; Function Attrs: nounwind uwtable
define internal i32 @externalEntityInitProcessor3(ptr noundef %0, ptr noundef %1, ptr noundef %2, ptr noundef %3) #0 {
  %5 = alloca i32, align 4
  %6 = alloca ptr, align 8
  %7 = alloca ptr, align 8
  %8 = alloca ptr, align 8
  %9 = alloca ptr, align 8
  %10 = alloca i32, align 4
  %11 = alloca ptr, align 8
  %12 = alloca i32, align 4
  %13 = alloca i32, align 4
  store ptr %0, ptr %6, align 8, !tbaa !13
  store ptr %1, ptr %7, align 8, !tbaa !4
  store ptr %2, ptr %8, align 8, !tbaa !4
  store ptr %3, ptr %9, align 8, !tbaa !191
  call void @llvm.lifetime.start.p0(i64 4, ptr %10) #10
  call void @llvm.lifetime.start.p0(i64 8, ptr %11) #10
  %14 = load ptr, ptr %7, align 8, !tbaa !4
  store ptr %14, ptr %11, align 8, !tbaa !4
  %15 = load ptr, ptr %7, align 8, !tbaa !4
  %16 = load ptr, ptr %6, align 8, !tbaa !13
  %17 = getelementptr inbounds nuw %struct.XML_ParserStruct, ptr %16, i32 0, i32 50
  store ptr %15, ptr %17, align 8, !tbaa !134
  %18 = load ptr, ptr %6, align 8, !tbaa !13
  %19 = getelementptr inbounds nuw %struct.XML_ParserStruct, ptr %18, i32 0, i32 37
  %20 = load ptr, ptr %19, align 8, !tbaa !201
  %21 = getelementptr inbounds nuw %struct.encoding, ptr %20, i32 0, i32 0
  %22 = getelementptr inbounds [3 x ptr], ptr %21, i64 0, i64 1
  %23 = load ptr, ptr %22, align 8, !tbaa !9
  %24 = load ptr, ptr %6, align 8, !tbaa !13
  %25 = getelementptr inbounds nuw %struct.XML_ParserStruct, ptr %24, i32 0, i32 37
  %26 = load ptr, ptr %25, align 8, !tbaa !201
  %27 = load ptr, ptr %7, align 8, !tbaa !4
  %28 = load ptr, ptr %8, align 8, !tbaa !4
  %29 = call i32 %23(ptr noundef %26, ptr noundef %27, ptr noundef %28, ptr noundef %11)
  store i32 %29, ptr %10, align 4, !tbaa !177
  %30 = load ptr, ptr %11, align 8, !tbaa !4
  %31 = load ptr, ptr %6, align 8, !tbaa !13
  %32 = getelementptr inbounds nuw %struct.XML_ParserStruct, ptr %31, i32 0, i32 51
  store ptr %30, ptr %32, align 8, !tbaa !135
  %33 = load i32, ptr %10, align 4, !tbaa !177
  switch i32 %33, label %78 [
    i32 12, label %34
    i32 -1, label %58
    i32 -2, label %68
  ]

34:                                               ; preds = %4
  call void @llvm.lifetime.start.p0(i64 4, ptr %12) #10
  %35 = load ptr, ptr %6, align 8, !tbaa !13
  %36 = load ptr, ptr %7, align 8, !tbaa !4
  %37 = load ptr, ptr %11, align 8, !tbaa !4
  %38 = call i32 @processXmlDecl(ptr noundef %35, i32 noundef 1, ptr noundef %36, ptr noundef %37)
  store i32 %38, ptr %12, align 4, !tbaa !177
  %39 = load i32, ptr %12, align 4, !tbaa !177
  %40 = icmp ne i32 %39, 0
  br i1 %40, label %41, label %43

41:                                               ; preds = %34
  %42 = load i32, ptr %12, align 4, !tbaa !177
  store i32 %42, ptr %5, align 4
  store i32 1, ptr %13, align 4
  br label %55

43:                                               ; preds = %34
  %44 = load ptr, ptr %6, align 8, !tbaa !13
  %45 = getelementptr inbounds nuw %struct.XML_ParserStruct, ptr %44, i32 0, i32 88
  %46 = getelementptr inbounds nuw %struct.XML_ParsingStatus, ptr %45, i32 0, i32 0
  %47 = load i32, ptr %46, align 8, !tbaa !140
  switch i32 %47, label %52 [
    i32 3, label %48
    i32 2, label %51
  ]

48:                                               ; preds = %43
  %49 = load ptr, ptr %11, align 8, !tbaa !4
  %50 = load ptr, ptr %9, align 8, !tbaa !191
  store ptr %49, ptr %50, align 8, !tbaa !4
  store i32 0, ptr %5, align 4
  store i32 1, ptr %13, align 4
  br label %55

51:                                               ; preds = %43
  store i32 35, ptr %5, align 4
  store i32 1, ptr %13, align 4
  br label %55

52:                                               ; preds = %43
  %53 = load ptr, ptr %11, align 8, !tbaa !4
  store ptr %53, ptr %7, align 8, !tbaa !4
  br label %54

54:                                               ; preds = %52
  store i32 0, ptr %13, align 4
  br label %55

55:                                               ; preds = %54, %51, %48, %41
  call void @llvm.lifetime.end.p0(i64 4, ptr %12) #10
  %56 = load i32, ptr %13, align 4
  switch i32 %56, label %88 [
    i32 0, label %57
  ]

57:                                               ; preds = %55
  br label %78

58:                                               ; preds = %4
  %59 = load ptr, ptr %6, align 8, !tbaa !13
  %60 = getelementptr inbounds nuw %struct.XML_ParserStruct, ptr %59, i32 0, i32 88
  %61 = getelementptr inbounds nuw %struct.XML_ParsingStatus, ptr %60, i32 0, i32 1
  %62 = load i8, ptr %61, align 4, !tbaa !200
  %63 = icmp ne i8 %62, 0
  br i1 %63, label %67, label %64

64:                                               ; preds = %58
  %65 = load ptr, ptr %7, align 8, !tbaa !4
  %66 = load ptr, ptr %9, align 8, !tbaa !191
  store ptr %65, ptr %66, align 8, !tbaa !4
  store i32 0, ptr %5, align 4
  store i32 1, ptr %13, align 4
  br label %88

67:                                               ; preds = %58
  store i32 5, ptr %5, align 4
  store i32 1, ptr %13, align 4
  br label %88

68:                                               ; preds = %4
  %69 = load ptr, ptr %6, align 8, !tbaa !13
  %70 = getelementptr inbounds nuw %struct.XML_ParserStruct, ptr %69, i32 0, i32 88
  %71 = getelementptr inbounds nuw %struct.XML_ParsingStatus, ptr %70, i32 0, i32 1
  %72 = load i8, ptr %71, align 4, !tbaa !200
  %73 = icmp ne i8 %72, 0
  br i1 %73, label %77, label %74

74:                                               ; preds = %68
  %75 = load ptr, ptr %7, align 8, !tbaa !4
  %76 = load ptr, ptr %9, align 8, !tbaa !191
  store ptr %75, ptr %76, align 8, !tbaa !4
  store i32 0, ptr %5, align 4
  store i32 1, ptr %13, align 4
  br label %88

77:                                               ; preds = %68
  store i32 6, ptr %5, align 4
  store i32 1, ptr %13, align 4
  br label %88

78:                                               ; preds = %4, %57
  %79 = load ptr, ptr %6, align 8, !tbaa !13
  %80 = getelementptr inbounds nuw %struct.XML_ParserStruct, ptr %79, i32 0, i32 48
  store ptr @externalEntityContentProcessor, ptr %80, align 8, !tbaa !89
  %81 = load ptr, ptr %6, align 8, !tbaa !13
  %82 = getelementptr inbounds nuw %struct.XML_ParserStruct, ptr %81, i32 0, i32 56
  store i32 1, ptr %82, align 4, !tbaa !138
  %83 = load ptr, ptr %6, align 8, !tbaa !13
  %84 = load ptr, ptr %7, align 8, !tbaa !4
  %85 = load ptr, ptr %8, align 8, !tbaa !4
  %86 = load ptr, ptr %9, align 8, !tbaa !191
  %87 = call i32 @externalEntityContentProcessor(ptr noundef %83, ptr noundef %84, ptr noundef %85, ptr noundef %86)
  store i32 %87, ptr %5, align 4
  store i32 1, ptr %13, align 4
  br label %88

88:                                               ; preds = %78, %77, %74, %67, %64, %55
  call void @llvm.lifetime.end.p0(i64 8, ptr %11) #10
  call void @llvm.lifetime.end.p0(i64 4, ptr %10) #10
  %89 = load i32, ptr %5, align 4
  ret i32 %89
}