; Function Attrs: nounwind uwtable
define internal i32 @externalEntityInitProcessor3(ptr noundef initializes((536, 552)) %0, ptr noundef %1, ptr noundef %2, ptr noundef writeonly captures(none) %3) #0 {
  %5 = alloca ptr, align 8
  call void @llvm.lifetime.start.p0(i64 8, ptr nonnull %5) #23
  store ptr %1, ptr %5, align 8, !tbaa !185
  %6 = getelementptr inbounds nuw i8, ptr %0, i64 536
  store ptr %1, ptr %6, align 8, !tbaa !188
  %7 = getelementptr inbounds nuw i8, ptr %0, i64 304
  %8 = load ptr, ptr %7, align 8, !tbaa !186
  %9 = getelementptr inbounds nuw i8, ptr %8, i64 8
  %10 = load ptr, ptr %9, align 8, !tbaa !103
  %11 = call i32 %10(ptr noundef %8, ptr noundef %1, ptr noundef %2, ptr noundef nonnull %5) #23
  %12 = load ptr, ptr %5, align 8, !tbaa !185
  %13 = getelementptr inbounds nuw i8, ptr %0, i64 544
  store ptr %12, ptr %13, align 8, !tbaa !205
  switch i32 %11, label %31 [
    i32 12, label %14
    i32 -1, label %23
    i32 -2, label %27
  ]

14:                                               ; preds = %4
  %15 = call fastcc i32 @processXmlDecl(ptr noundef nonnull %0, i32 noundef 1, ptr noundef %1, ptr noundef %12)
  %.not33 = icmp eq i32 %15, 0
  br i1 %.not33, label %16, label %.thread

16:                                               ; preds = %14
  %17 = getelementptr inbounds nuw i8, ptr %0, i64 896
  %18 = load i32, ptr %17, align 8, !tbaa !79
  switch i32 %18, label %21 [
    i32 3, label %19
    i32 2, label %.thread
  ]

19:                                               ; preds = %16
  %20 = load ptr, ptr %5, align 8, !tbaa !185
  store ptr %20, ptr %3, align 8, !tbaa !185
  br label %.thread

21:                                               ; preds = %16
  %22 = load ptr, ptr %5, align 8, !tbaa !185
  br label %31

23:                                               ; preds = %4
  %24 = getelementptr inbounds nuw i8, ptr %0, i64 900
  %25 = load i8, ptr %24, align 4, !tbaa !187
  %.not32 = icmp eq i8 %25, 0
  br i1 %.not32, label %26, label %.thread

26:                                               ; preds = %23
  store ptr %1, ptr %3, align 8, !tbaa !185
  br label %.thread

27:                                               ; preds = %4
  %28 = getelementptr inbounds nuw i8, ptr %0, i64 900
  %29 = load i8, ptr %28, align 4, !tbaa !187
  %.not = icmp eq i8 %29, 0
  br i1 %.not, label %30, label %.thread

30:                                               ; preds = %27
  store ptr %1, ptr %3, align 8, !tbaa !185
  br label %.thread

31:                                               ; preds = %21, %4
  %.029 = phi ptr [ %1, %4 ], [ %22, %21 ]
  %32 = getelementptr inbounds nuw i8, ptr %0, i64 520
  store ptr @externalEntityContentProcessor, ptr %32, align 8, !tbaa !61
  %33 = getelementptr inbounds nuw i8, ptr %0, i64 580
  store i32 1, ptr %33, align 4, !tbaa !73
  %34 = call i32 @externalEntityContentProcessor(ptr noundef nonnull %0, ptr noundef %.029, ptr noundef %2, ptr noundef %3)
  br label %.thread

.thread:                                          ; preds = %16, %14, %19, %27, %23, %31, %30, %26
  %.1 = phi i32 [ %34, %31 ], [ 0, %30 ], [ 0, %26 ], [ 5, %23 ], [ 6, %27 ], [ 35, %16 ], [ %15, %14 ], [ 0, %19 ]
  call void @llvm.lifetime.end.p0(i64 8, ptr nonnull %5) #23
  ret i32 %.1
}